; Function Attrs: mustprogress uwtable
define dso_local void @_ZN11cmXMLWriter13StartDocumentEPKc(ptr noundef nonnull readonly align 8 captures(none) dereferenceable(83) %0, ptr noundef %1) local_unnamed_addr #0 align 2 {
  %3 = load ptr, ptr %0, align 8, !tbaa !31
  %4 = tail call noundef nonnull align 8 dereferenceable(8) ptr @_ZSt16__ostream_insertIcSt11char_traitsIcEERSt13basic_ostreamIT_T0_ES6_PKS3_l(ptr noundef nonnull align 8 dereferenceable(8) %3, ptr noundef nonnull @.str, i64 noundef 30)
  %.not.i = icmp eq ptr %1, null
  br i1 %.not.i, label %5, label %13

5:                                                ; preds = %2
  %6 = load ptr, ptr %3, align 8, !tbaa !32
  %7 = getelementptr i8, ptr %6, i64 -24
  %8 = load i64, ptr %7, align 8
  %9 = getelementptr inbounds i8, ptr %3, i64 %8
  %10 = getelementptr inbounds nuw i8, ptr %9, i64 32
  %11 = load i32, ptr %10, align 8, !tbaa !34
  %12 = or i32 %11, 1
  tail call void @_ZNSt9basic_iosIcSt11char_traitsIcEE5clearESt12_Ios_Iostate(ptr noundef nonnull align 8 dereferenceable(264) %9, i32 noundef %12)
  br label %_ZStlsISt11char_traitsIcEERSt13basic_ostreamIcT_ES5_PKc.exit

13:                                               ; preds = %2
  %14 = tail call noundef i64 @strlen(ptr noundef nonnull dereferenceable(1) %1) #17
  %15 = tail call noundef nonnull align 8 dereferenceable(8) ptr @_ZSt16__ostream_insertIcSt11char_traitsIcEERSt13basic_ostreamIT_T0_ES6_PKS3_l(ptr noundef nonnull align 8 dereferenceable(8) %3, ptr noundef nonnull %1, i64 noundef %14)
  br label %_ZStlsISt11char_traitsIcEERSt13basic_ostreamIcT_ES5_PKc.exit

_ZStlsISt11char_traitsIcEERSt13basic_ostreamIcT_ES5_PKc.exit: ; preds = %5, %13
  %16 = tail call noundef nonnull align 8 dereferenceable(8) ptr @_ZSt16__ostream_insertIcSt11char_traitsIcEERSt13basic_ostreamIT_T0_ES6_PKS3_l(ptr noundef nonnull align 8 dereferenceable(8) %3, ptr noundef nonnull @.str.1, i64 noundef 3)
  ret void
}